target datalayout = "e-m:e-p270:32:32-p271:32:32-p272:64:64-i64:64-i128:128-f80:128-n8:16:32:64-S128"
target triple = "x86_64-unknown-linux-gnu"

%"struct.hermes::vm::VTable" = type { i64, i32, i32, ptr, ptr, ptr, ptr }
%"class.hermes::vm::Environment" = type { %"class.hermes::vm::VariableSizeRuntimeCell", %"class.hermes::vm::GCPointer", %"struct.std::atomic.191", [4 x i8] }
%"class.hermes::vm::VariableSizeRuntimeCell" = type { %"class.hermes::vm::GCCell" }
%"class.hermes::vm::GCCell" = type { %union.anon.189 }
%union.anon.189 = type { %"class.hermes::vm::KindAndSize" }
%"class.hermes::vm::KindAndSize" = type { i32 }
%"class.hermes::vm::GCPointer" = type { %"class.hermes::vm::GCPointerBase" }
%"class.hermes::vm::GCPointerBase" = type { %"class.hermes::vm::CompressedPointer" }
%"class.hermes::vm::CompressedPointer" = type { %"class.hermes::vm::BasedPointer" }
%"class.hermes::vm::BasedPointer" = type { i32 }
%"struct.std::atomic.191" = type { %"struct.std::__atomic_base.192" }
%"struct.std::__atomic_base.192" = type { i32 }
%"class.hermes::vm::Metadata::Builder" = type { ptr, %"class.std::map", %"class.std::map", %"class.std::map", %"class.std::map", %"class.hermes::OptValue", [3 x i8], %"class.hermes::OptValue.197", ptr }
%"class.std::map" = type { %"class.std::_Rb_tree" }
%"class.std::_Rb_tree" = type { %"struct.std::_Rb_tree<unsigned char, std::pair<const unsigned char, const char *>, std::_Select1st<std::pair<const unsigned char, const char *>>, std::less<unsigned char>>::_Rb_tree_impl" }
%"struct.std::_Rb_tree<unsigned char, std::pair<const unsigned char, const char *>, std::_Select1st<std::pair<const unsigned char, const char *>>, std::less<unsigned char>>::_Rb_tree_impl" = type { %"struct.std::_Rb_tree_key_compare", %"struct.std::_Rb_tree_header" }
%"struct.std::_Rb_tree_key_compare" = type { %"struct.std::less" }
%"struct.std::less" = type { i8 }
%"struct.std::_Rb_tree_header" = type { %"struct.std::_Rb_tree_node_base", i64 }
%"struct.std::_Rb_tree_node_base" = type { i32, ptr, ptr, ptr }
%"class.hermes::OptValue" = type { %"struct.hermes::vm::Metadata::ArrayData", i8 }
%"struct.hermes::vm::Metadata::ArrayData" = type { i8, i8, i8, i8 }
%"class.hermes::OptValue.197" = type <{ i32, i8, [3 x i8] }>

@_ZN6hermes2vm11Environment2vtE = hidden constant %"struct.hermes::vm::VTable" { i64 -47381121442796770, i32 21, i32 0, ptr null, ptr null, ptr null, ptr null }, align 8
@.str = private unnamed_addr constant [18 x i8] c"parentEnvironment\00", align 1

; Function Attrs: mustprogress nounwind uwtable
define linkonce_odr hidden noundef i64 @_ZN4llvh15TrailingObjectsIN6hermes2vm11EnvironmentEJNS2_17GCHermesValueBaseINS2_11HermesValueEEEEE22callNumTrailingObjectsEPKS3_NS_25trailing_objects_internal19TrailingObjectsBase13OverloadTokenIS3_EE(ptr noundef %Obj) #0 comdat align 2 {
entry:
  %Obj.addr = alloca ptr, align 8
  store ptr %Obj, ptr %Obj.addr, align 8
  ret i64 1
}

; Function Attrs: mustprogress nounwind uwtable
define linkonce_odr hidden noundef ptr @_ZN4llvh15TrailingObjectsIN6hermes2vm11EnvironmentEJNS2_17GCHermesValueBaseINS2_11HermesValueEEEEE22getTrailingObjectsImplEPKS3_NS_25trailing_objects_internal19TrailingObjectsBase13OverloadTokenIS3_EE(ptr noundef %Obj) #0 comdat align 2 {
entry:
  %Obj.addr = alloca ptr, align 8
  store ptr %Obj, ptr %Obj.addr, align 8
  %0 = load ptr, ptr %Obj.addr, align 8
  ret ptr %0
}

; Function Attrs: mustprogress nounwind uwtable
define linkonce_odr hidden noundef ptr @_ZN4llvh25trailing_objects_internal19TrailingObjectsImplILi8EN6hermes2vm11EnvironmentENS_15TrailingObjectsIS4_JNS3_17GCHermesValueBaseINS3_11HermesValueEEEEEES4_JS8_EE22getTrailingObjectsImplEPKS4_NS0_19TrailingObjectsBase13OverloadTokenIS8_EE(ptr noundef %Obj) #0 comdat align 2 {
entry:
  %Obj.addr = alloca ptr, align 8
  %Ptr = alloca ptr, align 8
  store ptr %Obj, ptr %Obj.addr, align 8
  %0 = load ptr, ptr %Obj.addr, align 8
  %call = call noundef ptr @_ZN4llvh15TrailingObjectsIN6hermes2vm11EnvironmentEJNS2_17GCHermesValueBaseINS2_11HermesValueEEEEE22getTrailingObjectsImplEPKS3_NS_25trailing_objects_internal19TrailingObjectsBase13OverloadTokenIS3_EE(ptr noundef %0)
  %1 = load ptr, ptr %Obj.addr, align 8
  %call2 = call noundef i64 @_ZN4llvh15TrailingObjectsIN6hermes2vm11EnvironmentEJNS2_17GCHermesValueBaseINS2_11HermesValueEEEEE22callNumTrailingObjectsEPKS3_NS_25trailing_objects_internal19TrailingObjectsBase13OverloadTokenIS3_EE(ptr noundef %1)
  %add.ptr = getelementptr inbounds %"class.hermes::vm::Environment", ptr %call, i64 %call2
  store ptr %add.ptr, ptr %Ptr, align 8
  %2 = load ptr, ptr %Ptr, align 8
  ret ptr %2
}

; Function Attrs: mustprogress nounwind uwtable
define linkonce_odr hidden void @_ZN4llvh15TrailingObjectsIN6hermes2vm11EnvironmentEJNS2_17GCHermesValueBaseINS2_11HermesValueEEEEE31verifyTrailingObjectsAssertionsEv() #0 comdat align 2 {
entry:
  ret void
}

; Function Attrs: mustprogress nounwind uwtable
define linkonce_odr hidden noundef ptr @_ZNK4llvh15TrailingObjectsIN6hermes2vm11EnvironmentEJNS2_17GCHermesValueBaseINS2_11HermesValueEEEEE18getTrailingObjectsIS6_EEPKT_v(ptr noundef nonnull align 8 dereferenceable(8) %this) #0 comdat align 2 {
entry:
  %this.addr = alloca ptr, align 8
  store ptr %this, ptr %this.addr, align 8
  %this1 = load ptr, ptr %this.addr, align 8
  call void @_ZN4llvh15TrailingObjectsIN6hermes2vm11EnvironmentEJNS2_17GCHermesValueBaseINS2_11HermesValueEEEEE31verifyTrailingObjectsAssertionsEv()
  %call = call noundef ptr @_ZN4llvh25trailing_objects_internal19TrailingObjectsImplILi8EN6hermes2vm11EnvironmentENS_15TrailingObjectsIS4_JNS3_17GCHermesValueBaseINS3_11HermesValueEEEEEES4_JS8_EE22getTrailingObjectsImplEPKS4_NS0_19TrailingObjectsBase13OverloadTokenIS8_EE(ptr noundef %this1)
  ret ptr %call
}

; Function Attrs: mustprogress nounwind uwtable
define linkonce_odr hidden void @_ZN6hermes2vm8Metadata7Builder8addArrayEPKNS0_17GCHermesValueBaseINS0_11HermesValueEEEPKSt6atomicIjEm(ptr noundef nonnull align 8 dereferenceable(224) %this, ptr noundef %startLocation, ptr noundef %lengthLocation, i64 noundef %stride) #0 comdat align 2 {
entry:
  %this.addr = alloca ptr, align 8
  %startLocation.addr = alloca ptr, align 8
  %lengthLocation.addr = alloca ptr, align 8
  %stride.addr = alloca i64, align 8
  store ptr %this, ptr %this.addr, align 8
  store ptr %startLocation, ptr %startLocation.addr, align 8
  store ptr %lengthLocation, ptr %lengthLocation.addr, align 8
  store i64 %stride, ptr %stride.addr, align 8
  %this1 = load ptr, ptr %this.addr, align 8
  %0 = load ptr, ptr %startLocation.addr, align 8
  %1 = load ptr, ptr %lengthLocation.addr, align 8
  %2 = load i64, ptr %stride.addr, align 8
  call void @_ZN6hermes2vm8Metadata7Builder8addArrayEPKcNS1_9ArrayData9ArrayTypeEPKvPKSt6atomicIjEm(ptr noundef nonnull align 8 dereferenceable(224) %this1, ptr noundef null, i8 noundef zeroext 1, ptr noundef %0, ptr noundef %1, i64 noundef %2)
  ret void
}

; Function Attrs: mustprogress nounwind uwtable
define linkonce_odr hidden noundef ptr @_ZNK6hermes2vm11Environment8getSlotsEv(ptr noundef nonnull align 8 dereferenceable(16) %this) #0 comdat align 2 {
entry:
  %this.addr = alloca ptr, align 8
  store ptr %this, ptr %this.addr, align 8
  %this1 = load ptr, ptr %this.addr, align 8
  %call = call noundef ptr @_ZNK4llvh15TrailingObjectsIN6hermes2vm11EnvironmentEJNS2_17GCHermesValueBaseINS2_11HermesValueEEEEE18getTrailingObjectsIS6_EEPKT_v(ptr noundef nonnull align 8 dereferenceable(8) %this1)
  ret ptr %call
}

; Function Attrs: mustprogress nounwind uwtable
define linkonce_odr hidden void @_ZN6hermes2vm8Metadata7Builder9setVTableEPKNS0_6VTableE(ptr noundef nonnull align 8 dereferenceable(224) %this, ptr noundef %vtp) #0 comdat align 2 {
entry:
  %this.addr = alloca ptr, align 8
  %vtp.addr = alloca ptr, align 8
  store ptr %this, ptr %this.addr, align 8
  store ptr %vtp, ptr %vtp.addr, align 8
  %this1 = load ptr, ptr %this.addr, align 8
  %0 = load ptr, ptr %vtp.addr, align 8
  %vtp_ = getelementptr inbounds %"class.hermes::vm::Metadata::Builder", ptr %this1, i32 0, i32 8
  store ptr %0, ptr %vtp_, align 8
  ret void
}

; Function Attrs: mustprogress nounwind uwtable
define hidden void @_ZN6hermes2vm20EnvironmentBuildMetaEPKNS0_6GCCellERNS0_8Metadata7BuilderE(ptr noundef %cell, ptr noundef nonnull align 8 dereferenceable(224) %mb) #0 {
entry:
  %cell.addr = alloca ptr, align 8
  %mb.addr = alloca ptr, align 8
  %self = alloca ptr, align 8
  store ptr %cell, ptr %cell.addr, align 8
  store ptr %mb, ptr %mb.addr, align 8
  %0 = load ptr, ptr %cell.addr, align 8
  store ptr %0, ptr %self, align 8
  %1 = load ptr, ptr %mb.addr, align 8
  call void @_ZN6hermes2vm8Metadata7Builder9setVTableEPKNS0_6VTableE(ptr noundef nonnull align 8 dereferenceable(224) %1, ptr noundef @_ZN6hermes2vm11Environment2vtE)
  %2 = load ptr, ptr %mb.addr, align 8
  %3 = load ptr, ptr %self, align 8
  %parentEnvironment_ = getelementptr inbounds %"class.hermes::vm::Environment", ptr %3, i32 0, i32 1
  call void @_ZN6hermes2vm8Metadata7Builder8addFieldEPKcPKNS0_13GCPointerBaseE(ptr noundef nonnull align 8 dereferenceable(224) %2, ptr noundef @.str, ptr noundef %parentEnvironment_)
  %4 = load ptr, ptr %mb.addr, align 8
  %5 = load ptr, ptr %self, align 8
  %call = call noundef ptr @_ZNK6hermes2vm11Environment8getSlotsEv(ptr noundef nonnull align 8 dereferenceable(16) %5)
  %6 = load ptr, ptr %self, align 8
  %size_ = getelementptr inbounds %"class.hermes::vm::Environment", ptr %6, i32 0, i32 2
  call void @_ZN6hermes2vm8Metadata7Builder8addArrayEPKNS0_17GCHermesValueBaseINS0_11HermesValueEEEPKSt6atomicIjEm(ptr noundef nonnull align 8 dereferenceable(224) %4, ptr noundef %call, ptr noundef %size_, i64 noundef 8)
  ret void
}