; Function Attrs: mustprogress nounwind uwtable
define hidden void @_ZN6hermes2vm20EnvironmentBuildMetaEPKNS0_6GCCellERNS0_8Metadata7BuilderE(ptr noundef %cell, ptr noundef nonnull align 8 dereferenceable(224) initializes((216, 224)) %mb) local_unnamed_addr #0 {
entry:
  %vtp_.i = getelementptr inbounds nuw i8, ptr %mb, i64 216
  store ptr @_ZN6hermes2vm11Environment2vtE, ptr %vtp_.i, align 8
  %parentEnvironment_ = getelementptr inbounds nuw i8, ptr %cell, i64 4
  tail call void @_ZN6hermes2vm8Metadata7Builder8addFieldEPKcPKNS0_13GCPointerBaseE(ptr noundef nonnull align 8 dereferenceable(224) %mb, ptr noundef nonnull @.str, ptr noundef nonnull %parentEnvironment_) #11
  %add.ptr.i.i.i = getelementptr inbounds nuw i8, ptr %cell, i64 16
  %size_ = getelementptr inbounds nuw i8, ptr %cell, i64 8
  tail call void @_ZN6hermes2vm8Metadata7Builder8addArrayEPKcNS1_9ArrayData9ArrayTypeEPKvPKSt6atomicIjEm(ptr noundef nonnull align 8 dereferenceable(224) %mb, ptr noundef null, i8 noundef zeroext 1, ptr noundef nonnull %add.ptr.i.i.i, ptr noundef nonnull %size_, i64 noundef 8) #11
  ret void
}